target datalayout = "e-m:e-p270:32:32-p271:32:32-p272:64:64-i64:64-i128:128-f80:128-n8:16:32:64-S128"
target triple = "x86_64-pc-linux-gnu"

%struct.XLogCtlData = type { %struct.XLogCtlInsert, %struct.XLogwrtRqst, i64, %struct.FullTransactionId, i64, i64, i64, %struct.pg_atomic_uint64, i64, i64, %struct.pg_atomic_uint64, %struct.pg_atomic_uint64, %struct.pg_atomic_uint64, i64, ptr, ptr, i32, i32, i32, i32, i8, i8, i64, i64, %struct.CheckPoint, i64, i8 }
%struct.XLogCtlInsert = type { i8, i64, i64, [128 x i8], i64, i8, i32, i64, ptr }
%struct.XLogwrtRqst = type { i64, i64 }
%struct.FullTransactionId = type { i64 }
%struct.pg_atomic_uint64 = type { i64 }
%struct.CheckPoint = type { i64, i32, i32, i8, i32, %struct.FullTransactionId, i32, i32, i32, i32, i32, i32, i32, i64, i32, i32, i32 }

@XLogCtl = internal global ptr null, align 8
@.str.14 = private unnamed_addr constant [7 x i8] c"xlog.c\00", align 1
@__func__.XLogSetReplicationSlotMinimumLSN = private unnamed_addr constant [33 x i8] c"XLogSetReplicationSlotMinimumLSN\00", align 1

; Function Attrs: inlinehint nounwind uwtable
define internal i32 @tas(ptr noundef %0) #6 {
  %2 = alloca ptr, align 8
  %3 = alloca i8, align 1
  store ptr %0, ptr %2, align 8
  call void @llvm.lifetime.start.p0(i64 1, ptr %3) #16
  store i8 1, ptr %3, align 1
  %4 = load i8, ptr %3, align 1
  %5 = load ptr, ptr %2, align 8
  %6 = call i8 asm sideeffect "\09lock\09\09\09\0A\09xchgb\09$0,$1\09\0A", "=q,=*m,0,*m,~{memory},~{cc},~{dirflag},~{fpsr},~{flags}"(ptr elementtype(i8) %5, i8 %4, ptr elementtype(i8) %5) #16, !srcloc !18
  store i8 %6, ptr %3, align 1
  %7 = load i8, ptr %3, align 1
  %8 = zext i8 %7 to i32
  call void @llvm.lifetime.end.p0(i64 1, ptr %3) #16
  ret i32 %8
}

; Function Attrs: nounwind uwtable
define dso_local void @XLogSetReplicationSlotMinimumLSN(i64 noundef %0) #0 {
  %2 = alloca i64, align 8
  store i64 %0, ptr %2, align 8
  %3 = load ptr, ptr @XLogCtl, align 8
  %4 = getelementptr inbounds nuw %struct.XLogCtlData, ptr %3, i32 0, i32 26
  %5 = call i32 @tas(ptr noundef %4)
  %6 = icmp ne i32 %5, 0
  br i1 %6, label %7, label %11

7:                                                ; preds = %1
  %8 = load ptr, ptr @XLogCtl, align 8
  %9 = getelementptr inbounds nuw %struct.XLogCtlData, ptr %8, i32 0, i32 26
  %10 = call i32 @s_lock(ptr noundef %9, ptr noundef @.str.14, i32 noundef 2693, ptr noundef @__func__.XLogSetReplicationSlotMinimumLSN)
  br label %12

11:                                               ; preds = %1
  br label %12

12:                                               ; preds = %11, %7
  %13 = load i64, ptr %2, align 8
  %14 = load ptr, ptr @XLogCtl, align 8
  %15 = getelementptr inbounds nuw %struct.XLogCtlData, ptr %14, i32 0, i32 5
  store i64 %13, ptr %15, align 8
  br label %16

16:                                               ; preds = %12
  call void asm sideeffect "", "~{memory},~{dirflag},~{fpsr},~{flags}"() #16, !srcloc !27
  %17 = load ptr, ptr @XLogCtl, align 8
  %18 = getelementptr inbounds nuw %struct.XLogCtlData, ptr %17, i32 0, i32 26
  store i8 0, ptr %18, align 8
  br label %19

19:                                               ; preds = %16
  ret void
}