; Function Attrs: nounwind uwtable
define dso_local void @XLogSetReplicationSlotMinimumLSN(i64 noundef %0) local_unnamed_addr #0 {
  %2 = load ptr, ptr @XLogCtl, align 8
  %3 = getelementptr inbounds nuw i8, ptr %2, i64 448
  %4 = tail call i8 asm sideeffect "\09lock\09\09\09\0A\09xchgb\09$0,$1\09\0A", "=q,=*m,0,*m,~{memory},~{cc},~{dirflag},~{fpsr},~{flags}"(ptr nonnull elementtype(i8) %3, i8 1, ptr nonnull elementtype(i8) %3) #26, !srcloc !10
  %.not = icmp eq i8 %4, 0
  br i1 %.not, label %9, label %5

5:                                                ; preds = %1
  %6 = load ptr, ptr @XLogCtl, align 8
  %7 = getelementptr inbounds nuw i8, ptr %6, i64 448
  %8 = tail call i32 @s_lock(ptr noundef nonnull %7, ptr noundef nonnull @.str.14, i32 noundef 2693, ptr noundef nonnull @__func__.XLogSetReplicationSlotMinimumLSN) #26
  br label %9

9:                                                ; preds = %1, %5
  %10 = load ptr, ptr @XLogCtl, align 8
  %11 = getelementptr inbounds nuw i8, ptr %10, i64 224
  store i64 %0, ptr %11, align 8
  tail call void asm sideeffect "", "~{memory},~{dirflag},~{fpsr},~{flags}"() #26, !srcloc !28
  %12 = load ptr, ptr @XLogCtl, align 8
  %13 = getelementptr inbounds nuw i8, ptr %12, i64 448
  store i8 0, ptr %13, align 8
  ret void
}